target datalayout = "e-m:e-p270:32:32-p271:32:32-p272:64:64-i64:64-i128:128-f80:128-n8:16:32:64-S128"
target triple = "x86_64-pc-linux-gnu"

%struct.VVCLocalContext = type { i8, i8, i8, i8, i32, i32, [4 x i8], [3276800 x i8], [16384 x i16], [16384 x i16], [16384 x i16], [32768 x i8], [332800 x i8], [368640 x i8], [368640 x i8], [17424 x i32], %struct.anon, %struct.anon.0, ptr, [2 x [1024 x %struct.ReconstructedArea]], [2 x i32], %struct.NeighbourAvailable, i32, ptr, ptr, ptr, ptr }
%struct.anon = type { i32, i8, i32, i32, i32, [3 x i32], i32, i32, i32, i32, i32, i32 }
%struct.anon.0 = type { i32, i32, i32 }
%struct.ReconstructedArea = type { i32, i32, i32, i32 }
%struct.NeighbourAvailable = type { i32, i32, i32, i32, i32 }
%struct.VVCFrameContext = type { ptr, [17 x %struct.VVCFrame], ptr, ptr, %struct.VVCFrameParamSets, ptr, i32, i32, ptr, %struct.VVCDSPContext, %struct.VideoDSPContext, ptr, i64, ptr, ptr, ptr, ptr, %struct.anon.1 }
%struct.VVCFrame = type { ptr, ptr, ptr, ptr, ptr, ptr, i32, i32, i32, %struct.VVCWindow, i32, i32, ptr, ptr, i16, i8, ptr }
%struct.VVCWindow = type { i16, i16, i16, i16 }
%struct.VVCFrameParamSets = type { ptr, ptr, %struct.VVCPH, [8 x ptr], %struct.VVCLMCS, ptr }
%struct.VVCPH = type { ptr, ptr, i32, i32, i8, [3 x i16], i8, [3 x i16], %struct.PredWeightTable }
%struct.PredWeightTable = type { [2 x i8], [2 x i8], [2 x [2 x [15 x i8]]], [2 x [3 x [15 x i16]]], [2 x [3 x [15 x i16]]] }
%struct.VVCLMCS = type { i8, i8, %union.anon, %union.anon, [17 x i16], [16 x i16] }
%union.anon = type { [4096 x i16] }
%struct.VVCDSPContext = type { %struct.VVCInterDSPContext, %struct.VVCIntraDSPContext, %struct.VVCItxDSPContext, %struct.VVCLMCSDSPContext, %struct.VVCLFDSPContext, %struct.VVCSAODSPContext, %struct.VVCALFDSPContext }
%struct.VVCInterDSPContext = type { [2 x [7 x [2 x [2 x ptr]]]], [2 x [7 x [2 x [2 x ptr]]]], [2 x [7 x [2 x [2 x ptr]]]], [2 x [7 x ptr]], [2 x [7 x ptr]], [2 x [7 x ptr]], ptr, ptr, ptr, ptr, ptr, ptr, ptr, ptr, ptr, ptr, ptr, [2 x [2 x ptr]] }
%struct.VVCIntraDSPContext = type { ptr, ptr, ptr, ptr, ptr, ptr, ptr, ptr, ptr, ptr }
%struct.VVCItxDSPContext = type { ptr, ptr, [3 x [6 x ptr]], ptr, ptr }
%struct.VVCLMCSDSPContext = type { ptr }
%struct.VVCLFDSPContext = type { [2 x ptr], [2 x ptr], [2 x ptr] }
%struct.VVCSAODSPContext = type { [9 x ptr], [9 x ptr], [2 x ptr] }
%struct.VVCALFDSPContext = type { [2 x ptr], ptr, ptr, ptr }
%struct.VideoDSPContext = type { ptr, ptr }
%struct.anon.1 = type { ptr, ptr, ptr, ptr, [2 x ptr], [2 x ptr], [2 x ptr], [2 x ptr], [2 x ptr], [3 x ptr], ptr, ptr, [2 x ptr], ptr, ptr, [2 x ptr], ptr, ptr, ptr, [2 x ptr], ptr, [3 x ptr], ptr, [2 x ptr], [2 x ptr], [2 x ptr], [2 x [3 x ptr]], [2 x ptr], [2 x ptr], [3 x ptr], [3 x ptr], [3 x [2 x ptr]], [3 x [2 x ptr]], ptr, ptr, ptr, [3 x ptr], %struct.anon.2 }
%struct.anon.2 = type { i32, i32, i32, i32, i32, i32, i32, i32, i32, i32, i32, i32 }
%struct.VVCSPS = type { ptr, [3 x i8], [3 x i8], i32, i8, i32, i8, i8, i8, i16, i8, i8, i8, i8, i8, i8, i8, i8, [5 x i32], i8, i8, [3 x [111 x i8]] }
%struct.CodingUnit = type { i32, i32, i32, i32, i32, i32, i32, i8, i8, i8, i8, i32, i32, i8, i8, i8, i8, i8, i32, i32, i32, i32, i32, i32, [3 x i32], [3 x i32], %struct.anon.3, [4 x i8], [3 x %struct.Palette], [4 x i8], %struct.PredictionUnit, ptr }
%struct.anon.3 = type { ptr, ptr }
%struct.Palette = type { i8, [63 x i16] }
%struct.PredictionUnit = type { i8, i8, i8, i8, i8, i8, [2 x %struct.MvField], i32, %struct.MotionInfo, i8, i8, [2 x [16 x i16]], [2 x [16 x i16]], [2 x i32], [4 x i8] }
%struct.MvField = type { [2 x %struct.Mv], [2 x i8], i8, i8, i8, i8 }
%struct.Mv = type { i32, i32 }
%struct.MotionInfo = type { i32, [2 x i8], i8, i8, i32, [2 x [3 x %struct.Mv]], i32, i32 }
%struct.VVCPPS = type { ptr, [3 x i8], [6 x [3 x i8]], i16, i16, [1000 x i16], [1000 x i16], i16, i16, i16, i16, i32, i16, i16, i16, i16, ptr, ptr, ptr, ptr, ptr, i16, i16, i16, i16, i16, [1000 x i16], [1000 x i16], [1000 x i16], [1000 x i16] }

; Function Attrs: nounwind uwtable
define internal ptr @get_reconstructed_area(ptr noundef %0, i32 noundef %1, i32 noundef %2, i32 noundef %3) #0 {
  %5 = alloca ptr, align 8
  %6 = alloca ptr, align 8
  %7 = alloca i32, align 4
  %8 = alloca i32, align 4
  %9 = alloca i32, align 4
  %10 = alloca i32, align 4
  %11 = alloca i32, align 4
  %12 = alloca i32, align 4
  %13 = alloca ptr, align 8
  %14 = alloca i32, align 4
  %15 = alloca i32, align 4
  store ptr %0, ptr %6, align 8, !tbaa !9
  store i32 %1, ptr %7, align 4, !tbaa !4
  store i32 %2, ptr %8, align 4, !tbaa !4
  store i32 %3, ptr %9, align 4, !tbaa !4
  call void @llvm.lifetime.start.p0(i64 4, ptr %10) #6
  %16 = load i32, ptr %9, align 4, !tbaa !4
  %17 = icmp sgt i32 %16, 0
  %18 = zext i1 %17 to i32
  store i32 %18, ptr %10, align 4, !tbaa !4
  call void @llvm.lifetime.start.p0(i64 4, ptr %11) #6
  %19 = load ptr, ptr %6, align 8, !tbaa !9
  %20 = getelementptr inbounds nuw %struct.VVCLocalContext, ptr %19, i32 0, i32 20
  %21 = load i32, ptr %10, align 4, !tbaa !4
  %22 = sext i32 %21 to i64
  %23 = getelementptr inbounds [2 x i32], ptr %20, i64 0, i64 %22
  %24 = load i32, ptr %23, align 4, !tbaa !4
  %25 = sub nsw i32 %24, 1
  store i32 %25, ptr %11, align 4, !tbaa !4
  br label %26

26:                                               ; preds = %87, %4
  %27 = load i32, ptr %11, align 4, !tbaa !4
  %28 = icmp sge i32 %27, 0
  br i1 %28, label %30, label %29

29:                                               ; preds = %26
  store i32 2, ptr %12, align 4
  br label %90

30:                                               ; preds = %26
  call void @llvm.lifetime.start.p0(i64 8, ptr %13) #6
  %31 = load ptr, ptr %6, align 8, !tbaa !9
  %32 = getelementptr inbounds nuw %struct.VVCLocalContext, ptr %31, i32 0, i32 19
  %33 = load i32, ptr %10, align 4, !tbaa !4
  %34 = sext i32 %33 to i64
  %35 = getelementptr inbounds [2 x [1024 x %struct.ReconstructedArea]], ptr %32, i64 0, i64 %34
  %36 = load i32, ptr %11, align 4, !tbaa !4
  %37 = sext i32 %36 to i64
  %38 = getelementptr inbounds [1024 x %struct.ReconstructedArea], ptr %35, i64 0, i64 %37
  store ptr %38, ptr %13, align 8, !tbaa !90
  call void @llvm.lifetime.start.p0(i64 4, ptr %14) #6
  %39 = load ptr, ptr %13, align 8, !tbaa !90
  %40 = getelementptr inbounds nuw %struct.ReconstructedArea, ptr %39, i32 0, i32 0
  %41 = load i32, ptr %40, align 4, !tbaa !92
  %42 = load ptr, ptr %13, align 8, !tbaa !90
  %43 = getelementptr inbounds nuw %struct.ReconstructedArea, ptr %42, i32 0, i32 2
  %44 = load i32, ptr %43, align 4, !tbaa !94
  %45 = add nsw i32 %41, %44
  store i32 %45, ptr %14, align 4, !tbaa !4
  call void @llvm.lifetime.start.p0(i64 4, ptr %15) #6
  %46 = load ptr, ptr %13, align 8, !tbaa !90
  %47 = getelementptr inbounds nuw %struct.ReconstructedArea, ptr %46, i32 0, i32 1
  %48 = load i32, ptr %47, align 4, !tbaa !97
  %49 = load ptr, ptr %13, align 8, !tbaa !90
  %50 = getelementptr inbounds nuw %struct.ReconstructedArea, ptr %49, i32 0, i32 3
  %51 = load i32, ptr %50, align 4, !tbaa !98
  %52 = add nsw i32 %48, %51
  store i32 %52, ptr %15, align 4, !tbaa !4
  %53 = load ptr, ptr %13, align 8, !tbaa !90
  %54 = getelementptr inbounds nuw %struct.ReconstructedArea, ptr %53, i32 0, i32 0
  %55 = load i32, ptr %54, align 4, !tbaa !92
  %56 = load i32, ptr %7, align 4, !tbaa !4
  %57 = icmp sle i32 %55, %56
  br i1 %57, label %58, label %74

58:                                               ; preds = %30
  %59 = load i32, ptr %7, align 4, !tbaa !4
  %60 = load i32, ptr %14, align 4, !tbaa !4
  %61 = icmp slt i32 %59, %60
  br i1 %61, label %62, label %74

62:                                               ; preds = %58
  %63 = load ptr, ptr %13, align 8, !tbaa !90
  %64 = getelementptr inbounds nuw %struct.ReconstructedArea, ptr %63, i32 0, i32 1
  %65 = load i32, ptr %64, align 4, !tbaa !97
  %66 = load i32, ptr %8, align 4, !tbaa !4
  %67 = icmp sle i32 %65, %66
  br i1 %67, label %68, label %74

68:                                               ; preds = %62
  %69 = load i32, ptr %8, align 4, !tbaa !4
  %70 = load i32, ptr %15, align 4, !tbaa !4
  %71 = icmp slt i32 %69, %70
  br i1 %71, label %72, label %74

72:                                               ; preds = %68
  %73 = load ptr, ptr %13, align 8, !tbaa !90
  store ptr %73, ptr %5, align 8
  store i32 1, ptr %12, align 4
  br label %84

74:                                               ; preds = %68, %62, %58, %30
  %75 = load i32, ptr %7, align 4, !tbaa !4
  %76 = load i32, ptr %14, align 4, !tbaa !4
  %77 = icmp sge i32 %75, %76
  br i1 %77, label %78, label %83

78:                                               ; preds = %74
  %79 = load i32, ptr %8, align 4, !tbaa !4
  %80 = load i32, ptr %15, align 4, !tbaa !4
  %81 = icmp sge i32 %79, %80
  br i1 %81, label %82, label %83

82:                                               ; preds = %78
  store i32 2, ptr %12, align 4
  br label %84

83:                                               ; preds = %78, %74
  store i32 0, ptr %12, align 4
  br label %84

84:                                               ; preds = %83, %82, %72
  call void @llvm.lifetime.end.p0(i64 4, ptr %15) #6
  call void @llvm.lifetime.end.p0(i64 4, ptr %14) #6
  call void @llvm.lifetime.end.p0(i64 8, ptr %13) #6
  %85 = load i32, ptr %12, align 4
  switch i32 %85, label %90 [
    i32 0, label %86
  ]

86:                                               ; preds = %84
  br label %87

87:                                               ; preds = %86
  %88 = load i32, ptr %11, align 4, !tbaa !4
  %89 = add nsw i32 %88, -1
  store i32 %89, ptr %11, align 4, !tbaa !4
  br label %26, !llvm.loop !99

90:                                               ; preds = %84, %29
  call void @llvm.lifetime.end.p0(i64 4, ptr %11) #6
  %91 = load i32, ptr %12, align 4
  switch i32 %91, label %93 [
    i32 2, label %92
  ]

92:                                               ; preds = %90
  store ptr null, ptr %5, align 8
  store i32 1, ptr %12, align 4
  br label %93

93:                                               ; preds = %92, %90
  call void @llvm.lifetime.end.p0(i64 4, ptr %10) #6
  %94 = load ptr, ptr %5, align 8
  ret ptr %94
}

; Function Attrs: alwaysinline nounwind willreturn memory(none) uwtable
define internal i32 @av_zero_extend_c(i32 noundef %0, i32 noundef %1) #4 {
  %3 = alloca i32, align 4
  %4 = alloca i32, align 4
  store i32 %0, ptr %3, align 4, !tbaa !4
  store i32 %1, ptr %4, align 4, !tbaa !4
  %5 = load i32, ptr %3, align 4, !tbaa !4
  %6 = load i32, ptr %4, align 4, !tbaa !4
  %7 = shl i32 1, %6
  %8 = sub i32 %7, 1
  %9 = and i32 %5, %8
  ret i32 %9
}

; Function Attrs: nounwind uwtable
define i32 @ff_vvc_get_left_available(ptr noundef %0, i32 noundef %1, i32 noundef %2, i32 noundef %3, i32 noundef %4) #0 {
  %6 = alloca i32, align 4
  %7 = alloca ptr, align 8
  %8 = alloca i32, align 4
  %9 = alloca i32, align 4
  %10 = alloca i32, align 4
  %11 = alloca i32, align 4
  %12 = alloca ptr, align 8
  %13 = alloca ptr, align 8
  %14 = alloca i32, align 4
  %15 = alloca i32, align 4
  %16 = alloca i32, align 4
  %17 = alloca i32, align 4
  %18 = alloca i32, align 4
  %19 = alloca i32, align 4
  %20 = alloca ptr, align 8
  %21 = alloca i32, align 4
  %22 = alloca i32, align 4
  %23 = alloca i32, align 4
  store ptr %0, ptr %7, align 8, !tbaa !9
  store i32 %1, ptr %8, align 4, !tbaa !4
  store i32 %2, ptr %9, align 4, !tbaa !4
  store i32 %3, ptr %10, align 4, !tbaa !4
  store i32 %4, ptr %11, align 4, !tbaa !4
  call void @llvm.lifetime.start.p0(i64 8, ptr %12) #6
  %24 = load ptr, ptr %7, align 8, !tbaa !9
  %25 = getelementptr inbounds nuw %struct.VVCLocalContext, ptr %24, i32 0, i32 24
  %26 = load ptr, ptr %25, align 8, !tbaa !12
  store ptr %26, ptr %12, align 8, !tbaa !22
  call void @llvm.lifetime.start.p0(i64 8, ptr %13) #6
  %27 = load ptr, ptr %12, align 8, !tbaa !22
  %28 = getelementptr inbounds nuw %struct.VVCFrameContext, ptr %27, i32 0, i32 4
  %29 = getelementptr inbounds nuw %struct.VVCFrameParamSets, ptr %28, i32 0, i32 0
  %30 = load ptr, ptr %29, align 8, !tbaa !23
  store ptr %30, ptr %13, align 8, !tbaa !59
  call void @llvm.lifetime.start.p0(i64 4, ptr %14) #6
  %31 = load ptr, ptr %13, align 8, !tbaa !59
  %32 = getelementptr inbounds nuw %struct.VVCSPS, ptr %31, i32 0, i32 1
  %33 = load i32, ptr %11, align 4, !tbaa !4
  %34 = sext i32 %33 to i64
  %35 = getelementptr inbounds [3 x i8], ptr %32, i64 0, i64 %34
  %36 = load i8, ptr %35, align 1, !tbaa !8
  %37 = zext i8 %36 to i32
  store i32 %37, ptr %14, align 4, !tbaa !4
  call void @llvm.lifetime.start.p0(i64 4, ptr %15) #6
  %38 = load ptr, ptr %13, align 8, !tbaa !59
  %39 = getelementptr inbounds nuw %struct.VVCSPS, ptr %38, i32 0, i32 2
  %40 = load i32, ptr %11, align 4, !tbaa !4
  %41 = sext i32 %40 to i64
  %42 = getelementptr inbounds [3 x i8], ptr %39, i64 0, i64 %41
  %43 = load i8, ptr %42, align 1, !tbaa !8
  %44 = zext i8 %43 to i32
  store i32 %44, ptr %15, align 4, !tbaa !4
  call void @llvm.lifetime.start.p0(i64 4, ptr %16) #6
  %45 = load ptr, ptr %13, align 8, !tbaa !59
  %46 = getelementptr inbounds nuw %struct.VVCSPS, ptr %45, i32 0, i32 8
  %47 = load i8, ptr %46, align 2, !tbaa !60
  %48 = zext i8 %47 to i32
  %49 = load i32, ptr %14, align 4, !tbaa !4
  %50 = sub nsw i32 %48, %49
  store i32 %50, ptr %16, align 4, !tbaa !4
  call void @llvm.lifetime.start.p0(i64 4, ptr %17) #6
  %51 = load i32, ptr %8, align 4, !tbaa !4
  %52 = load i32, ptr %16, align 4, !tbaa !4
  %53 = call i32 @av_zero_extend_c(i32 noundef %51, i32 noundef %52) #8
  store i32 %53, ptr %17, align 4, !tbaa !4
  call void @llvm.lifetime.start.p0(i64 4, ptr %18) #6
  %54 = load ptr, ptr %7, align 8, !tbaa !9
  %55 = getelementptr inbounds nuw %struct.VVCLocalContext, ptr %54, i32 0, i32 18
  %56 = load ptr, ptr %55, align 8, !tbaa !64
  %57 = getelementptr inbounds nuw %struct.CodingUnit, ptr %56, i32 0, i32 2
  %58 = load i32, ptr %57, align 8, !tbaa !100
  %59 = load ptr, ptr %13, align 8, !tbaa !59
  %60 = getelementptr inbounds nuw %struct.VVCSPS, ptr %59, i32 0, i32 8
  %61 = load i8, ptr %60, align 2, !tbaa !60
  %62 = zext i8 %61 to i32
  %63 = ashr i32 %58, %62
  %64 = add nsw i32 %63, 1
  %65 = load ptr, ptr %13, align 8, !tbaa !59
  %66 = getelementptr inbounds nuw %struct.VVCSPS, ptr %65, i32 0, i32 8
  %67 = load i8, ptr %66, align 2, !tbaa !60
  %68 = zext i8 %67 to i32
  %69 = shl i32 %64, %68
  store i32 %69, ptr %18, align 4, !tbaa !4
  call void @llvm.lifetime.start.p0(i64 4, ptr %19) #6
  %70 = load ptr, ptr %12, align 8, !tbaa !22
  %71 = getelementptr inbounds nuw %struct.VVCFrameContext, ptr %70, i32 0, i32 4
  %72 = getelementptr inbounds nuw %struct.VVCFrameParamSets, ptr %71, i32 0, i32 1
  %73 = load ptr, ptr %72, align 8, !tbaa !71
  %74 = getelementptr inbounds nuw %struct.VVCPPS, ptr %73, i32 0, i32 4
  %75 = load i16, ptr %74, align 8, !tbaa !101
  %76 = zext i16 %75 to i32
  %77 = load i32, ptr %18, align 4, !tbaa !4
  %78 = icmp sgt i32 %76, %77
  br i1 %78, label %79, label %81

79:                                               ; preds = %5
  %80 = load i32, ptr %18, align 4, !tbaa !4
  br label %89

81:                                               ; preds = %5
  %82 = load ptr, ptr %12, align 8, !tbaa !22
  %83 = getelementptr inbounds nuw %struct.VVCFrameContext, ptr %82, i32 0, i32 4
  %84 = getelementptr inbounds nuw %struct.VVCFrameParamSets, ptr %83, i32 0, i32 1
  %85 = load ptr, ptr %84, align 8, !tbaa !71
  %86 = getelementptr inbounds nuw %struct.VVCPPS, ptr %85, i32 0, i32 4
  %87 = load i16, ptr %86, align 8, !tbaa !101
  %88 = zext i16 %87 to i32
  br label %89

89:                                               ; preds = %81, %79
  %90 = phi i32 [ %80, %79 ], [ %88, %81 ]
  %91 = load i32, ptr %15, align 4, !tbaa !4
  %92 = ashr i32 %90, %91
  store i32 %92, ptr %19, align 4, !tbaa !4
  call void @llvm.lifetime.start.p0(i64 8, ptr %20) #6
  call void @llvm.lifetime.start.p0(i64 4, ptr %21) #6
  %93 = load i32, ptr %9, align 4, !tbaa !4
  store i32 %93, ptr %21, align 4, !tbaa !4
  %94 = load i32, ptr %17, align 4, !tbaa !4
  %95 = icmp ne i32 %94, 0
  br i1 %95, label %102, label %96

96:                                               ; preds = %89
  %97 = load ptr, ptr %7, align 8, !tbaa !9
  %98 = getelementptr inbounds nuw %struct.VVCLocalContext, ptr %97, i32 0, i32 0
  %99 = load i8, ptr %98, align 16, !tbaa !102
  %100 = icmp ne i8 %99, 0
  br i1 %100, label %102, label %101

101:                                              ; preds = %96
  store i32 0, ptr %6, align 4
  store i32 1, ptr %22, align 4
  br label %188

102:                                              ; preds = %96, %89
  %103 = load i32, ptr %10, align 4, !tbaa !4
  %104 = load i32, ptr %19, align 4, !tbaa !4
  %105 = load i32, ptr %9, align 4, !tbaa !4
  %106 = sub nsw i32 %104, %105
  %107 = icmp sgt i32 %103, %106
  br i1 %107, label %108, label %112

108:                                              ; preds = %102
  %109 = load i32, ptr %19, align 4, !tbaa !4
  %110 = load i32, ptr %9, align 4, !tbaa !4
  %111 = sub nsw i32 %109, %110
  br label %114

112:                                              ; preds = %102
  %113 = load i32, ptr %10, align 4, !tbaa !4
  br label %114

114:                                              ; preds = %112, %108
  %115 = phi i32 [ %111, %108 ], [ %113, %112 ]
  %116 = icmp sgt i32 0, %115
  br i1 %116, label %117, label %118

117:                                              ; preds = %114
  br label %132

118:                                              ; preds = %114
  %119 = load i32, ptr %10, align 4, !tbaa !4
  %120 = load i32, ptr %19, align 4, !tbaa !4
  %121 = load i32, ptr %9, align 4, !tbaa !4
  %122 = sub nsw i32 %120, %121
  %123 = icmp sgt i32 %119, %122
  br i1 %123, label %124, label %128

124:                                              ; preds = %118
  %125 = load i32, ptr %19, align 4, !tbaa !4
  %126 = load i32, ptr %9, align 4, !tbaa !4
  %127 = sub nsw i32 %125, %126
  br label %130

128:                                              ; preds = %118
  %129 = load i32, ptr %10, align 4, !tbaa !4
  br label %130

130:                                              ; preds = %128, %124
  %131 = phi i32 [ %127, %124 ], [ %129, %128 ]
  br label %132

132:                                              ; preds = %130, %117
  %133 = phi i32 [ 0, %117 ], [ %131, %130 ]
  store i32 %133, ptr %10, align 4, !tbaa !4
  %134 = load i32, ptr %17, align 4, !tbaa !4
  %135 = icmp ne i32 %134, 0
  br i1 %135, label %138, label %136

136:                                              ; preds = %132
  %137 = load i32, ptr %10, align 4, !tbaa !4
  store i32 %137, ptr %6, align 4
  store i32 1, ptr %22, align 4
  br label %188

138:                                              ; preds = %132
  br label %139

139:                                              ; preds = %176, %138
  %140 = load i32, ptr %10, align 4, !tbaa !4
  %141 = icmp sgt i32 %140, 0
  br i1 %141, label %142, label %150

142:                                              ; preds = %139
  %143 = load ptr, ptr %7, align 8, !tbaa !9
  %144 = load i32, ptr %8, align 4, !tbaa !4
  %145 = sub nsw i32 %144, 1
  %146 = load i32, ptr %21, align 4, !tbaa !4
  %147 = load i32, ptr %11, align 4, !tbaa !4
  %148 = call ptr @get_reconstructed_area(ptr noundef %143, i32 noundef %145, i32 noundef %146, i32 noundef %147)
  store ptr %148, ptr %20, align 8, !tbaa !90
  %149 = icmp ne ptr %148, null
  br label %150

150:                                              ; preds = %142, %139
  %151 = phi i1 [ false, %139 ], [ %149, %142 ]
  br i1 %151, label %152, label %184

152:                                              ; preds = %150
  call void @llvm.lifetime.start.p0(i64 4, ptr %23) #6
  %153 = load i32, ptr %10, align 4, !tbaa !4
  %154 = load ptr, ptr %20, align 8, !tbaa !90
  %155 = getelementptr inbounds nuw %struct.ReconstructedArea, ptr %154, i32 0, i32 1
  %156 = load i32, ptr %155, align 4, !tbaa !97
  %157 = load ptr, ptr %20, align 8, !tbaa !90
  %158 = getelementptr inbounds nuw %struct.ReconstructedArea, ptr %157, i32 0, i32 3
  %159 = load i32, ptr %158, align 4, !tbaa !98
  %160 = add nsw i32 %156, %159
  %161 = load i32, ptr %21, align 4, !tbaa !4
  %162 = sub nsw i32 %160, %161
  %163 = icmp sgt i32 %153, %162
  br i1 %163, label %164, label %174

164:                                              ; preds = %152
  %165 = load ptr, ptr %20, align 8, !tbaa !90
  %166 = getelementptr inbounds nuw %struct.ReconstructedArea, ptr %165, i32 0, i32 1
  %167 = load i32, ptr %166, align 4, !tbaa !97
  %168 = load ptr, ptr %20, align 8, !tbaa !90
  %169 = getelementptr inbounds nuw %struct.ReconstructedArea, ptr %168, i32 0, i32 3
  %170 = load i32, ptr %169, align 4, !tbaa !98
  %171 = add nsw i32 %167, %170
  %172 = load i32, ptr %21, align 4, !tbaa !4
  %173 = sub nsw i32 %171, %172
  br label %176

174:                                              ; preds = %152
  %175 = load i32, ptr %10, align 4, !tbaa !4
  br label %176

176:                                              ; preds = %174, %164
  %177 = phi i32 [ %173, %164 ], [ %175, %174 ]
  store i32 %177, ptr %23, align 4, !tbaa !4
  %178 = load i32, ptr %23, align 4, !tbaa !4
  %179 = load i32, ptr %21, align 4, !tbaa !4
  %180 = add nsw i32 %179, %178
  store i32 %180, ptr %21, align 4, !tbaa !4
  %181 = load i32, ptr %23, align 4, !tbaa !4
  %182 = load i32, ptr %10, align 4, !tbaa !4
  %183 = sub nsw i32 %182, %181
  store i32 %183, ptr %10, align 4, !tbaa !4
  call void @llvm.lifetime.end.p0(i64 4, ptr %23) #6
  br label %139, !llvm.loop !103

184:                                              ; preds = %150
  %185 = load i32, ptr %21, align 4, !tbaa !4
  %186 = load i32, ptr %9, align 4, !tbaa !4
  %187 = sub nsw i32 %185, %186
  store i32 %187, ptr %6, align 4
  store i32 1, ptr %22, align 4
  br label %188

188:                                              ; preds = %184, %136, %101
  call void @llvm.lifetime.end.p0(i64 4, ptr %21) #6
  call void @llvm.lifetime.end.p0(i64 8, ptr %20) #6
  call void @llvm.lifetime.end.p0(i64 4, ptr %19) #6
  call void @llvm.lifetime.end.p0(i64 4, ptr %18) #6
  call void @llvm.lifetime.end.p0(i64 4, ptr %17) #6
  call void @llvm.lifetime.end.p0(i64 4, ptr %16) #6
  call void @llvm.lifetime.end.p0(i64 4, ptr %15) #6
  call void @llvm.lifetime.end.p0(i64 4, ptr %14) #6
  call void @llvm.lifetime.end.p0(i64 8, ptr %13) #6
  call void @llvm.lifetime.end.p0(i64 8, ptr %12) #6
  %189 = load i32, ptr %6, align 4
  ret i32 %189
}