; Function Attrs: nofree norecurse nosync nounwind memory(read, inaccessiblemem: none) uwtable
define i32 @ff_vvc_get_left_available(ptr noundef readonly captures(none) %0, i32 noundef %1, i32 noundef %2, i32 noundef %3, i32 noundef %4) local_unnamed_addr #4 {
  %6 = getelementptr inbounds nuw i8, ptr %0, i64 4580552
  %7 = load ptr, ptr %6, align 8, !tbaa !9
  %8 = getelementptr inbounds nuw i8, ptr %7, i64 1928
  %9 = load ptr, ptr %8, align 8, !tbaa !20
  %10 = getelementptr inbounds nuw i8, ptr %9, i64 8
  %11 = sext i32 %4 to i64
  %12 = getelementptr inbounds [3 x i8], ptr %10, i64 0, i64 %11
  %13 = load i8, ptr %12, align 1, !tbaa !4
  %14 = zext i8 %13 to i32
  %15 = getelementptr inbounds nuw i8, ptr %9, i64 11
  %16 = getelementptr inbounds [3 x i8], ptr %15, i64 0, i64 %11
  %17 = load i8, ptr %16, align 1, !tbaa !4
  %18 = zext nneg i8 %17 to i32
  %19 = getelementptr inbounds nuw i8, ptr %9, i64 30
  %20 = load i8, ptr %19, align 2, !tbaa !56
  %21 = zext i8 %20 to i32
  %22 = sub nsw i32 %21, %14
  %notmask.i = shl nsw i32 -1, %22
  %23 = xor i32 %notmask.i, -1
  %24 = and i32 %1, %23
  %25 = getelementptr inbounds nuw i8, ptr %0, i64 4547736
  %26 = load ptr, ptr %25, align 8, !tbaa !60
  %27 = getelementptr inbounds nuw i8, ptr %26, i64 8
  %28 = load i32, ptr %27, align 8, !tbaa !94
  %29 = ashr i32 %28, %21
  %30 = add nsw i32 %29, 1
  %31 = shl i32 %30, %21
  %32 = getelementptr inbounds nuw i8, ptr %7, i64 1936
  %33 = load ptr, ptr %32, align 8, !tbaa !82
  %34 = getelementptr inbounds nuw i8, ptr %33, i64 32
  %35 = load i16, ptr %34, align 8, !tbaa !95
  %36 = zext i16 %35 to i32
  %. = tail call i32 @llvm.smin.i32(i32 %31, i32 %36)
  %37 = ashr i32 %., %18
  %.not = icmp eq i32 %24, 0
  br i1 %.not, label %38, label %42

38:                                               ; preds = %5
  %39 = load i8, ptr %0, align 16, !tbaa !96
  %.not61 = icmp eq i8 %39, 0
  br i1 %.not61, label %77, label %.thread

.thread:                                          ; preds = %38
  %40 = sub nsw i32 %37, %2
  %41 = tail call i32 @llvm.smin.i32(i32 %3, i32 %40)
  %spec.select63 = tail call i32 @llvm.smax.i32(i32 %41, i32 0)
  br label %77

42:                                               ; preds = %5
  %43 = sub nsw i32 %37, %2
  %44 = tail call i32 @llvm.smin.i32(i32 %3, i32 %43)
  %.not70 = icmp slt i32 %44, 1
  br i1 %.not70, label %.critedge, label %.lr.ph

.lr.ph:                                           ; preds = %42
  %45 = icmp sgt i32 %4, 0
  %46 = getelementptr inbounds nuw i8, ptr %0, i64 4580512
  %47 = zext i1 %45 to i64
  %48 = getelementptr inbounds nuw [2 x i32], ptr %46, i64 0, i64 %47
  %49 = load i32, ptr %48, align 4, !tbaa !7
  %50 = getelementptr inbounds nuw i8, ptr %0, i64 4547744
  %51 = zext i32 %49 to i64
  br label %52

52:                                               ; preds = %.lr.ph, %get_reconstructed_area.exit
  %.05469 = phi i32 [ %2, %.lr.ph ], [ %73, %get_reconstructed_area.exit ]
  %.05568 = phi i32 [ %44, %.lr.ph ], [ %74, %get_reconstructed_area.exit ]
  br label %53

53:                                               ; preds = %70, %52
  %indvars.iv.i = phi i64 [ %54, %70 ], [ %51, %52 ]
  %54 = add nsw i64 %indvars.iv.i, -1
  %55 = trunc nuw i64 %indvars.iv.i to i32
  %56 = icmp sgt i32 %55, 0
  br i1 %56, label %57, label %.critedge

57:                                               ; preds = %53
  %58 = getelementptr inbounds nuw [2 x [1024 x %struct.ReconstructedArea]], ptr %50, i64 0, i64 %47, i64 %54
  %59 = load i32, ptr %58, align 4, !tbaa !86
  %60 = getelementptr inbounds nuw i8, ptr %58, i64 8
  %61 = load i32, ptr %60, align 4, !tbaa !88
  %62 = add nsw i32 %61, %59
  %63 = getelementptr inbounds nuw i8, ptr %58, i64 4
  %64 = load i32, ptr %63, align 4, !tbaa !89
  %65 = getelementptr inbounds nuw i8, ptr %58, i64 12
  %66 = load i32, ptr %65, align 4, !tbaa !90
  %67 = add nsw i32 %66, %64
  %.not.i = icmp slt i32 %59, %1
  %68 = icmp sle i32 %1, %62
  %or.cond.i = select i1 %.not.i, i1 %68, i1 false
  %.not33.i = icmp sle i32 %64, %.05469
  %or.cond36.not52.i = select i1 %or.cond.i, i1 %.not33.i, i1 false
  %69 = icmp slt i32 %.05469, %67
  %or.cond37.i = select i1 %or.cond36.not52.i, i1 %69, i1 false
  br i1 %or.cond37.i, label %get_reconstructed_area.exit, label %70

70:                                               ; preds = %57
  %or.cond38.i = select i1 %68, i1 true, i1 %69
  br i1 %or.cond38.i, label %53, label %.critedge, !llvm.loop !91

get_reconstructed_area.exit:                      ; preds = %57
  %71 = sub i32 %64, %.05469
  %72 = add i32 %71, %66
  %..055 = tail call i32 @llvm.smin.i32(i32 %.05568, i32 %72)
  %73 = add nsw i32 %..055, %.05469
  %74 = sub nsw i32 %.05568, %..055
  %75 = icmp sgt i32 %74, 0
  br i1 %75, label %52, label %.critedge, !llvm.loop !97

.critedge:                                        ; preds = %get_reconstructed_area.exit, %53, %70, %42
  %.05467 = phi i32 [ %2, %42 ], [ %.05469, %70 ], [ %.05469, %53 ], [ %73, %get_reconstructed_area.exit ]
  %76 = sub nsw i32 %.05467, %2
  br label %77

77:                                               ; preds = %.thread, %38, %.critedge
  %.0 = phi i32 [ %76, %.critedge ], [ 0, %38 ], [ %spec.select63, %.thread ]
  ret i32 %.0
}